target datalayout = "e-m:e-p270:32:32-p271:32:32-p272:64:64-i64:64-i128:128-f80:128-n8:16:32:64-S128"
target triple = "x86_64-pc-linux-gnu"

%"class.cv::Mat" = type { i32, i32, i32, i32, ptr, ptr, ptr, ptr, ptr, ptr, %"struct.cv::MatSize", %"struct.cv::MatStep" }
%"struct.cv::MatSize" = type { ptr }
%"struct.cv::MatStep" = type { ptr, [2 x i64] }
%"class.cv::ximgproc::FastGlobalSmootherFilterImpl" = type { %"class.cv::ximgproc::FastGlobalSmootherFilter", i32, i32, i32, float, float, float, i32, %"class.cv::Mat", %"class.cv::Mat", %"class.cv::Mat", %"class.cv::Mat" }
%"class.cv::ximgproc::FastGlobalSmootherFilter" = type { %"class.cv::Algorithm" }
%"class.cv::Algorithm" = type { ptr }
%"struct.cv::Ptr" = type { %"class.std::shared_ptr" }
%"class.std::shared_ptr" = type { %"class.std::__shared_ptr" }
%"class.std::__shared_ptr" = type { ptr, %"class.std::__shared_count" }
%"class.std::__shared_count" = type { ptr }
%"struct.cv::has_custom_delete" = type { i8 }
%"class.std::_Sp_counted_base" = type { ptr, i32, i32 }
%"class.std::_Sp_counted_ptr" = type { %"class.std::_Sp_counted_base", ptr }

; Function Attrs: mustprogress nounwind uwtable
define linkonce_odr hidden void @_ZNSt16_Sp_counted_baseILN9__gnu_cxx12_Lock_policyE2EEC2Ev(ptr noundef nonnull align 8 dereferenceable(16) %0) unnamed_addr #7 comdat align 2 {
  %2 = alloca ptr, align 8
  store ptr %0, ptr %2, align 8, !tbaa !177
  %3 = load ptr, ptr %2, align 8
  store ptr getelementptr inbounds inrange(-16, 40) ({ [7 x ptr] }, ptr @_ZTVSt16_Sp_counted_baseILN9__gnu_cxx12_Lock_policyE2EE, i32 0, i32 0, i32 2), ptr %3, align 8, !tbaa !56
  %4 = getelementptr inbounds nuw %"class.std::_Sp_counted_base", ptr %3, i32 0, i32 1
  store i32 1, ptr %4, align 8, !tbaa !184
  %5 = getelementptr inbounds nuw %"class.std::_Sp_counted_base", ptr %3, i32 0, i32 2
  store i32 1, ptr %5, align 4, !tbaa !186
  ret void
}

; Function Attrs: mustprogress nounwind uwtable
define linkonce_odr hidden void @_ZNSt15_Sp_counted_ptrIPN2cv8ximgproc28FastGlobalSmootherFilterImplELN9__gnu_cxx12_Lock_policyE2EEC2ES3_(ptr noundef nonnull align 8 dereferenceable(24) %0, ptr noundef %1) unnamed_addr #7 comdat align 2 {
  %3 = alloca ptr, align 8
  %4 = alloca ptr, align 8
  store ptr %0, ptr %3, align 8, !tbaa !222
  store ptr %1, ptr %4, align 8, !tbaa !3
  %5 = load ptr, ptr %3, align 8
  call void @_ZNSt16_Sp_counted_baseILN9__gnu_cxx12_Lock_policyE2EEC2Ev(ptr noundef nonnull align 8 dereferenceable(16) %5) #3
  store ptr getelementptr inbounds inrange(-16, 40) ({ [7 x ptr] }, ptr @_ZTVSt15_Sp_counted_ptrIPN2cv8ximgproc28FastGlobalSmootherFilterImplELN9__gnu_cxx12_Lock_policyE2EE, i32 0, i32 0, i32 2), ptr %5, align 8, !tbaa !56
  %6 = getelementptr inbounds nuw %"class.std::_Sp_counted_ptr", ptr %5, i32 0, i32 1
  %7 = load ptr, ptr %4, align 8, !tbaa !3
  store ptr %7, ptr %6, align 8, !tbaa !224
  ret void
}

; Function Attrs: mustprogress uwtable
define linkonce_odr hidden void @_ZNSt14__shared_countILN9__gnu_cxx12_Lock_policyE2EEC2IPN2cv8ximgproc28FastGlobalSmootherFilterImplEEET_(ptr noundef nonnull align 8 dereferenceable(8) %0, ptr noundef %1) unnamed_addr #4 comdat align 2 personality ptr @__gxx_personality_v0 {
  %3 = alloca ptr, align 8
  %4 = alloca ptr, align 8
  %5 = alloca ptr, align 8
  %6 = alloca i32, align 4
  store ptr %0, ptr %3, align 8, !tbaa !172
  store ptr %1, ptr %4, align 8, !tbaa !3
  %7 = load ptr, ptr %3, align 8
  %8 = getelementptr inbounds nuw %"class.std::__shared_count", ptr %7, i32 0, i32 0
  store ptr null, ptr %8, align 8, !tbaa !174
  %9 = invoke noalias noundef nonnull ptr @_Znwm(i64 noundef 24) #23
          to label %10 unwind label %13

10:                                               ; preds = %2
  %11 = load ptr, ptr %4, align 8, !tbaa !3
  call void @_ZNSt15_Sp_counted_ptrIPN2cv8ximgproc28FastGlobalSmootherFilterImplELN9__gnu_cxx12_Lock_policyE2EEC2ES3_(ptr noundef nonnull align 8 dereferenceable(24) %9, ptr noundef %11) #3
  %12 = getelementptr inbounds nuw %"class.std::__shared_count", ptr %7, i32 0, i32 0
  store ptr %9, ptr %12, align 8, !tbaa !174
  br label %32

13:                                               ; preds = %2
  %14 = landingpad { ptr, i32 }
          catch ptr null
  %15 = extractvalue { ptr, i32 } %14, 0
  store ptr %15, ptr %5, align 8
  %16 = extractvalue { ptr, i32 } %14, 1
  store i32 %16, ptr %6, align 4
  br label %17

17:                                               ; preds = %13
  %18 = load ptr, ptr %5, align 8
  %19 = call ptr @__cxa_begin_catch(ptr %18) #3
  %20 = load ptr, ptr %4, align 8, !tbaa !3
  %21 = icmp eq ptr %20, null
  br i1 %21, label %26, label %22

22:                                               ; preds = %17
  %23 = load ptr, ptr %20, align 8, !tbaa !56
  %24 = getelementptr inbounds ptr, ptr %23, i64 1
  %25 = load ptr, ptr %24, align 8
  call void %25(ptr noundef nonnull align 8 dereferenceable(424) %20) #3
  br label %26

26:                                               ; preds = %22, %17
  invoke void @__cxa_rethrow() #21
          to label %41 unwind label %27

27:                                               ; preds = %26
  %28 = landingpad { ptr, i32 }
          cleanup
  %29 = extractvalue { ptr, i32 } %28, 0
  store ptr %29, ptr %5, align 8
  %30 = extractvalue { ptr, i32 } %28, 1
  store i32 %30, ptr %6, align 4
  invoke void @__cxa_end_catch()
          to label %31 unwind label %38

31:                                               ; preds = %27
  br label %33

32:                                               ; preds = %10
  ret void

33:                                               ; preds = %31
  %34 = load ptr, ptr %5, align 8
  %35 = load i32, ptr %6, align 4
  %36 = insertvalue { ptr, i32 } poison, ptr %34, 0
  %37 = insertvalue { ptr, i32 } %36, i32 %35, 1
  resume { ptr, i32 } %37

38:                                               ; preds = %27
  %39 = landingpad { ptr, i32 }
          catch ptr null
  %40 = extractvalue { ptr, i32 } %39, 0
  call void @__clang_call_terminate(ptr %40) #22
  unreachable

41:                                               ; preds = %26
  unreachable
}

; Function Attrs: mustprogress nounwind uwtable
define linkonce_odr hidden void @_ZNSt12__shared_ptrIN2cv8ximgproc28FastGlobalSmootherFilterImplELN9__gnu_cxx12_Lock_policyE2EE31_M_enable_shared_from_this_withIS2_S2_EENSt9enable_ifIXntsr15__has_esft_baseIT0_EE5valueEvE4typeEPT_(ptr noundef nonnull align 8 dereferenceable(16) %0, ptr noundef %1) #7 comdat align 2 {
  %3 = alloca ptr, align 8
  %4 = alloca ptr, align 8
  store ptr %0, ptr %3, align 8, !tbaa !144
  store ptr %1, ptr %4, align 8, !tbaa !3
  ret void
}

; Function Attrs: mustprogress uwtable
define linkonce_odr hidden void @_ZNSt14__shared_countILN9__gnu_cxx12_Lock_policyE2EEC2IPN2cv8ximgproc28FastGlobalSmootherFilterImplEEET_St17integral_constantIbLb0EE(ptr noundef nonnull align 8 dereferenceable(8) %0, ptr noundef %1) unnamed_addr #4 comdat align 2 {
  %3 = alloca ptr, align 8
  %4 = alloca ptr, align 8
  store ptr %0, ptr %3, align 8, !tbaa !172
  store ptr %1, ptr %4, align 8, !tbaa !3
  %5 = load ptr, ptr %3, align 8
  %6 = load ptr, ptr %4, align 8, !tbaa !3
  call void @_ZNSt14__shared_countILN9__gnu_cxx12_Lock_policyE2EEC2IPN2cv8ximgproc28FastGlobalSmootherFilterImplEEET_(ptr noundef nonnull align 8 dereferenceable(8) %5, ptr noundef %6)
  ret void
}

; Function Attrs: mustprogress uwtable
define linkonce_odr hidden void @_ZNSt12__shared_ptrIN2cv8ximgproc28FastGlobalSmootherFilterImplELN9__gnu_cxx12_Lock_policyE2EEC2IS2_vEEPT_(ptr noundef nonnull align 8 dereferenceable(16) %0, ptr noundef %1) unnamed_addr #4 comdat align 2 {
  %3 = alloca ptr, align 8
  %4 = alloca ptr, align 8
  store ptr %0, ptr %3, align 8, !tbaa !144
  store ptr %1, ptr %4, align 8, !tbaa !3
  %5 = load ptr, ptr %3, align 8
  %6 = getelementptr inbounds nuw %"class.std::__shared_ptr", ptr %5, i32 0, i32 0
  %7 = load ptr, ptr %4, align 8, !tbaa !3
  store ptr %7, ptr %6, align 8, !tbaa !220
  %8 = getelementptr inbounds nuw %"class.std::__shared_ptr", ptr %5, i32 0, i32 1
  %9 = load ptr, ptr %4, align 8, !tbaa !3
  call void @_ZNSt14__shared_countILN9__gnu_cxx12_Lock_policyE2EEC2IPN2cv8ximgproc28FastGlobalSmootherFilterImplEEET_St17integral_constantIbLb0EE(ptr noundef nonnull align 8 dereferenceable(8) %8, ptr noundef %9)
  %10 = load ptr, ptr %4, align 8, !tbaa !3
  call void @_ZNSt12__shared_ptrIN2cv8ximgproc28FastGlobalSmootherFilterImplELN9__gnu_cxx12_Lock_policyE2EE31_M_enable_shared_from_this_withIS2_S2_EENSt9enable_ifIXntsr15__has_esft_baseIT0_EE5valueEvE4typeEPT_(ptr noundef nonnull align 8 dereferenceable(16) %5, ptr noundef %10) #3
  ret void
}

; Function Attrs: mustprogress uwtable
define linkonce_odr hidden void @_ZNSt10shared_ptrIN2cv8ximgproc28FastGlobalSmootherFilterImplEEC2IS2_vEEPT_(ptr noundef nonnull align 8 dereferenceable(16) %0, ptr noundef %1) unnamed_addr #4 comdat align 2 {
  %3 = alloca ptr, align 8
  %4 = alloca ptr, align 8
  store ptr %0, ptr %3, align 8, !tbaa !218
  store ptr %1, ptr %4, align 8, !tbaa !3
  %5 = load ptr, ptr %3, align 8
  %6 = load ptr, ptr %4, align 8, !tbaa !3
  call void @_ZNSt12__shared_ptrIN2cv8ximgproc28FastGlobalSmootherFilterImplELN9__gnu_cxx12_Lock_policyE2EEC2IS2_vEEPT_(ptr noundef nonnull align 8 dereferenceable(16) %5, ptr noundef %6)
  ret void
}

; Function Attrs: inlinehint mustprogress uwtable
define linkonce_odr hidden void @_ZN2cv3PtrINS_8ximgproc28FastGlobalSmootherFilterImplEEC2IS2_EERKSt17integral_constantIbLb0EEPT_(ptr noundef nonnull align 8 dereferenceable(16) %0, ptr noundef nonnull align 1 dereferenceable(1) %1, ptr noundef %2) unnamed_addr #9 comdat align 2 {
  %4 = alloca ptr, align 8
  %5 = alloca ptr, align 8
  %6 = alloca ptr, align 8
  store ptr %0, ptr %4, align 8, !tbaa !89
  store ptr %1, ptr %5, align 8, !tbaa !216
  store ptr %2, ptr %6, align 8, !tbaa !3
  %7 = load ptr, ptr %4, align 8
  %8 = load ptr, ptr %6, align 8, !tbaa !3
  call void @_ZNSt10shared_ptrIN2cv8ximgproc28FastGlobalSmootherFilterImplEEC2IS2_vEEPT_(ptr noundef nonnull align 8 dereferenceable(16) %7, ptr noundef %8)
  ret void
}

; Function Attrs: inlinehint mustprogress uwtable
define linkonce_odr hidden void @_ZN2cv8ximgproc24FastGlobalSmootherFilterC2Ev(ptr noundef nonnull align 8 dereferenceable(8) %0) unnamed_addr #9 comdat align 2 {
  %2 = alloca ptr, align 8
  store ptr %0, ptr %2, align 8, !tbaa !154
  %3 = load ptr, ptr %2, align 8
  call void @_ZN2cv9AlgorithmC2Ev(ptr noundef nonnull align 8 dereferenceable(8) %3)
  store ptr getelementptr inbounds inrange(-16, 72) ({ [11 x ptr] }, ptr @_ZTVN2cv8ximgproc24FastGlobalSmootherFilterE, i32 0, i32 0, i32 2), ptr %3, align 8, !tbaa !56
  ret void
}

; Function Attrs: inlinehint mustprogress uwtable
define linkonce_odr hidden void @_ZN2cv3PtrINS_8ximgproc28FastGlobalSmootherFilterImplEEC2IS2_EEPT_(ptr noundef nonnull align 8 dereferenceable(16) %0, ptr noundef %1) unnamed_addr #9 comdat align 2 {
  %3 = alloca ptr, align 8
  %4 = alloca ptr, align 8
  %5 = alloca %"struct.cv::has_custom_delete", align 1
  store ptr %0, ptr %3, align 8, !tbaa !89
  store ptr %1, ptr %4, align 8, !tbaa !3
  %6 = load ptr, ptr %3, align 8
  call void @llvm.lifetime.start.p0(i64 1, ptr %5) #3
  %7 = load ptr, ptr %4, align 8, !tbaa !3
  call void @_ZN2cv3PtrINS_8ximgproc28FastGlobalSmootherFilterImplEEC2IS2_EERKSt17integral_constantIbLb0EEPT_(ptr noundef nonnull align 8 dereferenceable(16) %6, ptr noundef nonnull align 1 dereferenceable(1) %5, ptr noundef %7)
  call void @llvm.lifetime.end.p0(i64 1, ptr %5) #3
  ret void
}

; Function Attrs: inlinehint mustprogress uwtable
define linkonce_odr hidden void @_ZN2cv8ximgproc28FastGlobalSmootherFilterImplC2Ev(ptr noundef nonnull align 8 dereferenceable(424) %0) unnamed_addr #9 comdat align 2 {
  %2 = alloca ptr, align 8
  store ptr %0, ptr %2, align 8, !tbaa !3
  %3 = load ptr, ptr %2, align 8
  call void @_ZN2cv8ximgproc24FastGlobalSmootherFilterC2Ev(ptr noundef nonnull align 8 dereferenceable(8) %3)
  store ptr getelementptr inbounds inrange(-16, 72) ({ [11 x ptr] }, ptr @_ZTVN2cv8ximgproc28FastGlobalSmootherFilterImplE, i32 0, i32 0, i32 2), ptr %3, align 8, !tbaa !56
  %4 = getelementptr inbounds nuw %"class.cv::ximgproc::FastGlobalSmootherFilterImpl", ptr %3, i32 0, i32 8
  call void @_ZN2cv3MatC1Ev(ptr noundef nonnull align 8 dereferenceable(96) %4) #3
  %5 = getelementptr inbounds nuw %"class.cv::ximgproc::FastGlobalSmootherFilterImpl", ptr %3, i32 0, i32 9
  call void @_ZN2cv3MatC1Ev(ptr noundef nonnull align 8 dereferenceable(96) %5) #3
  %6 = getelementptr inbounds nuw %"class.cv::ximgproc::FastGlobalSmootherFilterImpl", ptr %3, i32 0, i32 10
  call void @_ZN2cv3MatC1Ev(ptr noundef nonnull align 8 dereferenceable(96) %6) #3
  %7 = getelementptr inbounds nuw %"class.cv::ximgproc::FastGlobalSmootherFilterImpl", ptr %3, i32 0, i32 11
  call void @_ZN2cv3MatC1Ev(ptr noundef nonnull align 8 dereferenceable(96) %7) #3
  ret void
}

; Function Attrs: mustprogress uwtable
define hidden void @_ZN2cv8ximgproc28FastGlobalSmootherFilterImpl6createERKNS_11_InputArrayEddid(ptr dead_on_unwind noalias writable sret(%"struct.cv::Ptr") align 8 %0, ptr noundef nonnull align 8 dereferenceable(24) %1, double noundef %2, double noundef %3, i32 noundef %4, double noundef %5) #4 align 2 personality ptr @__gxx_personality_v0 {
  %7 = alloca ptr, align 8
  %8 = alloca ptr, align 8
  %9 = alloca double, align 8
  %10 = alloca double, align 8
  %11 = alloca i32, align 4
  %12 = alloca double, align 8
  %13 = alloca ptr, align 8
  %14 = alloca ptr, align 8
  %15 = alloca i32, align 4
  store ptr %0, ptr %7, align 8
  store ptr %1, ptr %8, align 8, !tbaa !8
  store double %2, ptr %9, align 8, !tbaa !10
  store double %3, ptr %10, align 8, !tbaa !10
  store i32 %4, ptr %11, align 4, !tbaa !12
  store double %5, ptr %12, align 8, !tbaa !10
  call void @llvm.lifetime.start.p0(i64 8, ptr %13) #3
  %16 = call noalias noundef nonnull ptr @_Znwm(i64 noundef 424) #23
  call void @llvm.memset.p0.i64(ptr align 16 %16, i8 0, i64 424, i1 false)
  invoke void @_ZN2cv8ximgproc28FastGlobalSmootherFilterImplC2Ev(ptr noundef nonnull align 8 dereferenceable(424) %16)
          to label %17 unwind label %25

17:                                               ; preds = %6
  store ptr %16, ptr %13, align 8, !tbaa !3
  %18 = load ptr, ptr %13, align 8, !tbaa !3
  %19 = load ptr, ptr %8, align 8, !tbaa !8
  %20 = load double, ptr %9, align 8, !tbaa !10
  %21 = load double, ptr %10, align 8, !tbaa !10
  %22 = load i32, ptr %11, align 4, !tbaa !12
  %23 = load double, ptr %12, align 8, !tbaa !10
  call void @_ZN2cv8ximgproc28FastGlobalSmootherFilterImpl4initERKNS_11_InputArrayEddid(ptr noundef nonnull align 8 dereferenceable(424) %18, ptr noundef nonnull align 8 dereferenceable(24) %19, double noundef %20, double noundef %21, i32 noundef %22, double noundef %23)
  %24 = load ptr, ptr %13, align 8, !tbaa !3
  call void @_ZN2cv3PtrINS_8ximgproc28FastGlobalSmootherFilterImplEEC2IS2_EEPT_(ptr noundef nonnull align 8 dereferenceable(16) %0, ptr noundef %24)
  call void @llvm.lifetime.end.p0(i64 8, ptr %13) #3
  ret void

25:                                               ; preds = %6
  %26 = landingpad { ptr, i32 }
          cleanup
  %27 = extractvalue { ptr, i32 } %26, 0
  store ptr %27, ptr %14, align 8
  %28 = extractvalue { ptr, i32 } %26, 1
  store i32 %28, ptr %15, align 4
  call void @_ZdlPv(ptr noundef %16) #24
  call void @llvm.lifetime.end.p0(i64 8, ptr %13) #3
  br label %29

29:                                               ; preds = %25
  %30 = load ptr, ptr %14, align 8
  %31 = load i32, ptr %15, align 4
  %32 = insertvalue { ptr, i32 } poison, ptr %30, 0
  %33 = insertvalue { ptr, i32 } %32, i32 %31, 1
  resume { ptr, i32 } %33
}