; Function Attrs: mustprogress uwtable
define hidden void @_ZN2cv8ximgproc28FastGlobalSmootherFilterImpl6createERKNS_11_InputArrayEddid(ptr dead_on_unwind noalias writable writeonly sret(%"struct.cv::Ptr") align 8 captures(none) %0, ptr noundef nonnull align 8 dereferenceable(24) %1, double noundef %2, double noundef %3, i32 noundef %4, double noundef %5) local_unnamed_addr #3 align 2 personality ptr @__gxx_personality_v0 {
  %7 = tail call noalias noundef nonnull dereferenceable(424) ptr @_Znwm(i64 noundef 424) #26
  tail call void @llvm.memset.p0.i64(ptr noundef nonnull align 16 dereferenceable(424) %7, i8 0, i64 424, i1 false)
  invoke void @_ZN2cv9AlgorithmC2Ev(ptr noundef nonnull align 8 dereferenceable(424) %7)
          to label %8 unwind label %31

8:                                                ; preds = %6
  store ptr getelementptr inbounds nuw inrange(-16, 72) (i8, ptr @_ZTVN2cv8ximgproc28FastGlobalSmootherFilterImplE, i64 16), ptr %7, align 8, !tbaa !33
  %9 = getelementptr inbounds nuw i8, ptr %7, i64 40
  tail call void @_ZN2cv3MatC1Ev(ptr noundef nonnull align 8 dereferenceable(96) %9) #23
  %10 = getelementptr inbounds nuw i8, ptr %7, i64 136
  tail call void @_ZN2cv3MatC1Ev(ptr noundef nonnull align 8 dereferenceable(96) %10) #23
  %11 = getelementptr inbounds nuw i8, ptr %7, i64 232
  tail call void @_ZN2cv3MatC1Ev(ptr noundef nonnull align 8 dereferenceable(96) %11) #23
  %12 = getelementptr inbounds nuw i8, ptr %7, i64 328
  tail call void @_ZN2cv3MatC1Ev(ptr noundef nonnull align 8 dereferenceable(96) %12) #23
  tail call void @_ZN2cv8ximgproc28FastGlobalSmootherFilterImpl4initERKNS_11_InputArrayEddid(ptr noundef nonnull align 8 dereferenceable(424) %7, ptr noundef nonnull align 8 dereferenceable(24) %1, double noundef %2, double noundef %3, i32 noundef %4, double noundef %5)
  store ptr %7, ptr %0, align 8, !tbaa !77
  %13 = getelementptr inbounds nuw i8, ptr %0, i64 8
  store ptr null, ptr %13, align 8, !tbaa !81
  %14 = invoke noalias noundef nonnull dereferenceable(24) ptr @_Znwm(i64 noundef 24) #26
          to label %_ZN2cv3PtrINS_8ximgproc28FastGlobalSmootherFilterImplEEC2IS2_EEPT_.exit unwind label %15

15:                                               ; preds = %8
  %16 = landingpad { ptr, i32 }
          catch ptr null
  %17 = extractvalue { ptr, i32 } %16, 0
  %18 = tail call ptr @__cxa_begin_catch(ptr %17) #23
  %19 = load ptr, ptr %7, align 8, !tbaa !33
  %20 = getelementptr inbounds nuw i8, ptr %19, i64 8
  %21 = load ptr, ptr %20, align 8
  tail call void %21(ptr noundef nonnull align 8 dereferenceable(424) %7) #23
  invoke void @__cxa_rethrow() #24
          to label %27 unwind label %22

22:                                               ; preds = %15
  %23 = landingpad { ptr, i32 }
          cleanup
  invoke void @__cxa_end_catch()
          to label %common.resume unwind label %24

common.resume:                                    ; preds = %22, %31
  %common.resume.op = phi { ptr, i32 } [ %32, %31 ], [ %23, %22 ]
  resume { ptr, i32 } %common.resume.op

24:                                               ; preds = %22
  %25 = landingpad { ptr, i32 }
          catch ptr null
  %26 = extractvalue { ptr, i32 } %25, 0
  tail call void @__clang_call_terminate(ptr %26) #27
  unreachable

27:                                               ; preds = %15
  unreachable

_ZN2cv3PtrINS_8ximgproc28FastGlobalSmootherFilterImplEEC2IS2_EEPT_.exit: ; preds = %8
  %28 = getelementptr inbounds nuw i8, ptr %14, i64 8
  store i32 1, ptr %28, align 8, !tbaa !82
  %29 = getelementptr inbounds nuw i8, ptr %14, i64 12
  store i32 1, ptr %29, align 4, !tbaa !84
  store ptr getelementptr inbounds nuw inrange(-16, 40) (i8, ptr @_ZTVSt15_Sp_counted_ptrIPN2cv8ximgproc28FastGlobalSmootherFilterImplELN9__gnu_cxx12_Lock_policyE2EE, i64 16), ptr %14, align 8, !tbaa !33
  %30 = getelementptr inbounds nuw i8, ptr %14, i64 16
  store ptr %7, ptr %30, align 8, !tbaa !85
  store ptr %14, ptr %13, align 8, !tbaa !81
  ret void

31:                                               ; preds = %6
  %32 = landingpad { ptr, i32 }
          cleanup
  tail call void @_ZdlPv(ptr noundef nonnull %7) #25
  br label %common.resume
}